; Function Attrs: mustprogress nounwind uwtable
define internal fastcc void @_ZN12_GLOBAL__N_112TypePrintingD2Ev(ptr noundef nonnull align 8 dereferenceable(184) %0) unnamed_addr #1 align 2 {
  %2 = getelementptr inbounds nuw i8, ptr %0, i64 160
  %3 = load ptr, ptr %2, align 8
  %.not.i.i.i = icmp eq ptr %3, null
  br i1 %.not.i.i.i, label %_ZNSt6vectorIPN4llvm10StructTypeESaIS2_EED2Ev.exit, label %4

4:                                                ; preds = %1
  %5 = getelementptr inbounds i8, ptr %0, i64 176
  %6 = load ptr, ptr %5, align 8
  %7 = ptrtoint ptr %6 to i64
  %8 = ptrtoint ptr %3 to i64
  %9 = sub i64 %7, %8
  tail call void @_ZdlPvm(ptr noundef nonnull %3, i64 noundef %9) #26
  br label %_ZNSt6vectorIPN4llvm10StructTypeESaIS2_EED2Ev.exit

_ZNSt6vectorIPN4llvm10StructTypeESaIS2_EED2Ev.exit: ; preds = %1, %4
  %10 = getelementptr inbounds nuw i8, ptr %0, i64 136
  %11 = load ptr, ptr %10, align 8
  %12 = getelementptr inbounds i8, ptr %0, i64 152
  %13 = load i32, ptr %12, align 8
  %14 = zext i32 %13 to i64
  %15 = shl nuw nsw i64 %14, 4
  tail call void @_ZN4llvm17deallocate_bufferEPvmm(ptr noundef %11, i64 noundef %15, i64 noundef 8) #25
  %16 = getelementptr inbounds nuw i8, ptr %0, i64 8
  tail call void @_ZN4llvm10TypeFinderD2Ev(ptr noundef nonnull align 8 dereferenceable(121) %16) #25
  ret void
}